target datalayout = "e-m:e-p270:32:32-p271:32:32-p272:64:64-i64:64-i128:128-f80:128-n8:16:32:64-S128"
target triple = "x86_64-pc-linux-gnu"

%struct._zend_refcounted_h = type { i32, %union.anon.3 }
%union.anon.3 = type { i32 }
%struct._zend_string = type { %struct._zend_refcounted_h, i64, i64, [1 x i8] }

@valid_chars = internal constant [8 x i32] [i32 0, i32 67043328, i32 -1744830466, i32 134217726, i32 -1, i32 -1, i32 -1, i32 -1], align 16

; Function Attrs: nounwind uwtable
define zeroext i1 @zend_is_valid_class_name(ptr noundef %0) #0 {
  %2 = alloca i1, align 1
  %3 = alloca ptr, align 8
  %4 = alloca i64, align 8
  %5 = alloca i8, align 1
  store ptr %0, ptr %3, align 8
  store i64 0, ptr %4, align 8
  br label %6

6:                                                ; preds = %32, %1
  %7 = load i64, ptr %4, align 8
  %8 = load ptr, ptr %3, align 8
  %9 = getelementptr inbounds %struct._zend_string, ptr %8, i32 0, i32 2
  %10 = load i64, ptr %9, align 8
  %11 = icmp ult i64 %7, %10
  br i1 %11, label %12, label %35

12:                                               ; preds = %6
  %13 = load ptr, ptr %3, align 8
  %14 = getelementptr inbounds %struct._zend_string, ptr %13, i32 0, i32 3
  %15 = load i64, ptr %4, align 8
  %16 = getelementptr inbounds [1 x i8], ptr %14, i64 0, i64 %15
  %17 = load i8, ptr %16, align 1
  store i8 %17, ptr %5, align 1
  %18 = load i8, ptr %5, align 1
  %19 = zext i8 %18 to i64
  %20 = udiv i64 %19, 32
  %21 = getelementptr inbounds [8 x i32], ptr @valid_chars, i64 0, i64 %20
  %22 = load i32, ptr %21, align 4
  %23 = load i8, ptr %5, align 1
  %24 = zext i8 %23 to i64
  %25 = and i64 %24, 31
  %26 = trunc i64 %25 to i32
  %27 = lshr i32 %22, %26
  %28 = and i32 %27, 1
  %29 = icmp ne i32 %28, 0
  br i1 %29, label %31, label %30

30:                                               ; preds = %12
  store i1 false, ptr %2, align 1
  br label %36

31:                                               ; preds = %12
  br label %32

32:                                               ; preds = %31
  %33 = load i64, ptr %4, align 8
  %34 = add i64 %33, 1
  store i64 %34, ptr %4, align 8
  br label %6

35:                                               ; preds = %6
  store i1 true, ptr %2, align 1
  br label %36

36:                                               ; preds = %35, %30
  %37 = load i1, ptr %2, align 1
  ret i1 %37
}